; Function Attrs: mustprogress uwtable
define i64 @gguf_get_meta_size(ptr noundef readonly captures(none) %0) local_unnamed_addr #2 personality ptr @__gxx_personality_v0 {
  %2 = alloca %"class.std::vector.27", align 8
  call void @llvm.lifetime.start.p0(i64 24, ptr nonnull %2) #29
  call void @llvm.memset.p0.i64(ptr noundef nonnull align 8 dereferenceable(24) %2, i8 0, i64 24, i1 false)
  invoke void @_Z17gguf_write_to_bufPK12gguf_contextRSt6vectorIaSaIaEEb(ptr noundef %0, ptr noundef nonnull align 8 dereferenceable(24) %2, i1 noundef zeroext true)
          to label %3 unwind label %15

3:                                                ; preds = %1
  %4 = getelementptr inbounds nuw i8, ptr %2, i64 8
  %5 = load ptr, ptr %4, align 8, !tbaa !100
  %6 = load ptr, ptr %2, align 8, !tbaa !98
  %7 = ptrtoint ptr %6 to i64
  %.not.i.i.i = icmp eq ptr %6, null
  br i1 %.not.i.i.i, label %_ZNSt6vectorIaSaIaEED2Ev.exit, label %8

8:                                                ; preds = %3
  %9 = getelementptr inbounds nuw i8, ptr %2, i64 16
  %10 = load ptr, ptr %9, align 8, !tbaa !101
  %11 = ptrtoint ptr %10 to i64
  %12 = sub i64 %11, %7
  call void @_ZdlPvm(ptr noundef nonnull %6, i64 noundef %12) #32
  br label %_ZNSt6vectorIaSaIaEED2Ev.exit

_ZNSt6vectorIaSaIaEED2Ev.exit:                    ; preds = %3, %8
  %13 = ptrtoint ptr %5 to i64
  %14 = sub i64 %13, %7
  call void @llvm.lifetime.end.p0(i64 24, ptr nonnull %2) #29
  ret i64 %14

15:                                               ; preds = %1
  %16 = landingpad { ptr, i32 }
          cleanup
  %17 = load ptr, ptr %2, align 8, !tbaa !98
  %.not.i.i.i2 = icmp eq ptr %17, null
  br i1 %.not.i.i.i2, label %_ZNSt6vectorIaSaIaEED2Ev.exit3, label %18

18:                                               ; preds = %15
  %19 = getelementptr inbounds nuw i8, ptr %2, i64 16
  %20 = load ptr, ptr %19, align 8, !tbaa !101
  %21 = ptrtoint ptr %20 to i64
  %22 = ptrtoint ptr %17 to i64
  %23 = sub i64 %21, %22
  call void @_ZdlPvm(ptr noundef nonnull %17, i64 noundef %23) #32
  br label %_ZNSt6vectorIaSaIaEED2Ev.exit3

_ZNSt6vectorIaSaIaEED2Ev.exit3:                   ; preds = %15, %18
  call void @llvm.lifetime.end.p0(i64 24, ptr nonnull %2) #29
  resume { ptr, i32 } %16
}